(dp1
S'/home/ali/anaconda2/lib/python2.7/site-packages/figleaf-0.6.1-py2.7.egg/figleaf/internals.py'
p2
c__builtin__
set
p3
((lp4
I98
aI99
atRp5
sS'/home/ali/anaconda2/lib/python2.7/site-packages/pkg_resources/extern/__init__.py'
p6
g3
((lp7
I28
aI29
aI30
atRp8
sS'mid.py'
p9
g3
((lp10
I1
atRp11
sS'/home/ali/anaconda2/lib/python2.7/site-packages/pkg_resources/_vendor/six.py'
p12
g3
((lp13
I185
aI187
atRp14
sS'/home/ali/anaconda2/lib/python2.7/site-packages/figleaf-0.6.1-py2.7.egg/figleaf/__init__.py'
p15
g3
((lp16
I234
aI235
atRp17
sS'/home/ali/anaconda2/lib/python2.7/threading.py'
p18
g3
((lp19
I108
atRp20
s.